target datalayout = "e-m:e-p270:32:32-p271:32:32-p272:64:64-i64:64-i128:128-f80:128-n8:16:32:64-S128"
target triple = "x86_64-pc-linux-gnu"

%union.pthread_mutex_t = type { %struct.__pthread_mutex_s }
%struct.__pthread_mutex_s = type { i32, i32, i32, i32, i32, i16, i16, %struct.__pthread_internal_list }
%struct.__pthread_internal_list = type { ptr, ptr }
%struct.___itt_global = type { [8 x i8], i64, i64, i64, i64, i64, i64, %union.pthread_mutex_t, ptr, ptr, ptr, ptr, ptr, ptr, ptr, ptr, i32, ptr, i32, ptr, ptr }

@__itt_memory_read_ptr__3_0 = hidden global ptr @__itt_memory_read_init_3_0, align 8
@__itt_init_ittlib_ptr = internal global ptr @__itt_init_ittlib, align 8

; Function Attrs: nounwind uwtable
define internal void @__itt_memory_read_init_3_0(ptr noundef %0, i64 noundef %1) #0 {
  %3 = alloca ptr, align 8
  %4 = alloca i64, align 8
  store ptr %0, ptr %3, align 8, !tbaa !21
  store i64 %1, ptr %4, align 8, !tbaa !25
  %5 = load volatile i64, ptr getelementptr inbounds nuw (%struct.___itt_global, ptr @__itt__ittapi_global, i32 0, i32 4), align 8, !tbaa !3
  %6 = icmp ne i64 %5, 0
  br i1 %6, label %13, label %7

7:                                                ; preds = %2
  %8 = load ptr, ptr getelementptr inbounds nuw (%struct.___itt_global, ptr @__itt__ittapi_global, i32 0, i32 13), align 8, !tbaa !20
  %9 = icmp eq ptr %8, null
  br i1 %9, label %10, label %13

10:                                               ; preds = %7
  %11 = load ptr, ptr @__itt_init_ittlib_ptr, align 8, !tbaa !21
  %12 = call i32 %11(ptr noundef null, i32 noundef -1)
  br label %13

13:                                               ; preds = %10, %7, %2
  %14 = load ptr, ptr @__itt_memory_read_ptr__3_0, align 8, !tbaa !21
  %15 = icmp ne ptr %14, null
  br i1 %15, label %16, label %23

16:                                               ; preds = %13
  %17 = load ptr, ptr @__itt_memory_read_ptr__3_0, align 8, !tbaa !21
  %18 = icmp ne ptr %17, @__itt_memory_read_init_3_0
  br i1 %18, label %19, label %23

19:                                               ; preds = %16
  %20 = load ptr, ptr @__itt_memory_read_ptr__3_0, align 8, !tbaa !21
  %21 = load ptr, ptr %3, align 8, !tbaa !21
  %22 = load i64, ptr %4, align 8, !tbaa !25
  call void %20(ptr noundef %21, i64 noundef %22)
  br label %24

23:                                               ; preds = %16, %13
  br label %24

24:                                               ; preds = %23, %19
  ret void
}